; Function Attrs: mustprogress nofree norecurse nounwind sspstrong willreturn memory(readwrite, inaccessiblemem: none) uwtable
define noundef zeroext i1 @_ZN3tbb6detail2r19downgradeERNS0_2d112rtm_rw_mutex11scoped_lockE(ptr noundef nonnull align 8 captures(none) dereferenceable(12) %0) local_unnamed_addr #1 {
  %2 = getelementptr inbounds nuw i8, ptr %0, i64 8
  %3 = load i32, ptr %2, align 8, !tbaa !14
  switch i32 %3, label %_ZN3tbb6detail2r117rtm_rw_mutex_impl9downgradeERNS0_2d112rtm_rw_mutex11scoped_lockE.exit [
    i32 4, label %4
    i32 2, label %9
  ]

4:                                                ; preds = %1
  store i32 3, ptr %2, align 8, !tbaa !14
  %5 = load ptr, ptr %0, align 8, !tbaa !19
  %6 = getelementptr inbounds nuw i8, ptr %5, i64 64
  store atomic i8 0, ptr %6 monotonic, align 1
  %7 = load ptr, ptr %0, align 8, !tbaa !19
  %8 = atomicrmw add ptr %7, i64 3 seq_cst, align 8
  br label %_ZN3tbb6detail2r117rtm_rw_mutex_impl9downgradeERNS0_2d112rtm_rw_mutex11scoped_lockE.exit

9:                                                ; preds = %1
  store i32 1, ptr %2, align 8, !tbaa !14
  br label %_ZN3tbb6detail2r117rtm_rw_mutex_impl9downgradeERNS0_2d112rtm_rw_mutex11scoped_lockE.exit

_ZN3tbb6detail2r117rtm_rw_mutex_impl9downgradeERNS0_2d112rtm_rw_mutex11scoped_lockE.exit: ; preds = %1, %4, %9
  %.0.i = phi i1 [ true, %9 ], [ true, %4 ], [ false, %1 ]
  ret i1 %.0.i
}